; ModuleID = 'source-C-CXX/4/593.c'
source_filename = "source-C-CXX/4/593.c"
target datalayout = "e-m:e-p270:32:32-p271:32:32-p272:64:64-i64:64-f80:128-n8:16:32:64-S128"
target triple = "x86_64-pc-linux-gnu"

@.str = private unnamed_addr constant [4 x i8] c"%lf\00", align 1
@.str.1 = private unnamed_addr constant [3 x i8] c"%s\00", align 1
@.str.2 = private unnamed_addr constant [6 x i8] c"error\00", align 1
@.str.3 = private unnamed_addr constant [4 x i8] c"yes\00", align 1
@.str.4 = private unnamed_addr constant [3 x i8] c"no\00", align 1

; Function Attrs: nofree nounwind sspstrong uwtable
define dso_local i32 @main() local_unnamed_addr #0 {
  %1 = alloca double, align 8
  %2 = alloca [501 x i8], align 16
  %3 = alloca [501 x i8], align 16
  %4 = bitcast double* %1 to i8*
  call void @llvm.lifetime.start.p0i8(i64 8, i8* nonnull %4) #4
  %5 = getelementptr inbounds [501 x i8], [501 x i8]* %2, i64 0, i64 0
  call void @llvm.lifetime.start.p0i8(i64 501, i8* nonnull %5) #4
  %6 = getelementptr inbounds [501 x i8], [501 x i8]* %3, i64 0, i64 0
  call void @llvm.lifetime.start.p0i8(i64 501, i8* nonnull %6) #4
  %7 = call i32 (i8*, ...) @__isoc99_scanf(i8* getelementptr inbounds ([4 x i8], [4 x i8]* @.str, i64 0, i64 0), double* nonnull %1)
  %8 = call i32 (i8*, ...) @__isoc99_scanf(i8* getelementptr inbounds ([3 x i8], [3 x i8]* @.str.1, i64 0, i64 0), i8* nonnull %5)
  %9 = call i32 (i8*, ...) @__isoc99_scanf(i8* getelementptr inbounds ([3 x i8], [3 x i8]* @.str.1, i64 0, i64 0), i8* nonnull %6)
  %10 = call i64 @strlen(i8* noundef nonnull %5) #5
  %11 = trunc i64 %10 to i32
  %12 = call i64 @strlen(i8* noundef nonnull %6) #5
  %13 = trunc i64 %12 to i32
  %14 = icmp eq i32 %11, %13
  br i1 %14, label %15, label %50

15:                                               ; preds = %0, %19
  %16 = phi i64 [ %20, %19 ], [ 0, %0 ]
  %17 = getelementptr inbounds [501 x i8], [501 x i8]* %2, i64 0, i64 %16
  %18 = load i8, i8* %17, align 1, !tbaa !5
  switch i8 %18, label %50 [
    i8 0, label %21
    i8 65, label %19
    i8 84, label %19
    i8 71, label %19
    i8 67, label %19
  ]

19:                                               ; preds = %15, %15, %15, %15
  %20 = add nuw i64 %16, 1
  br label %15, !llvm.loop !8

21:                                               ; preds = %15, %28
  %22 = phi i64 [ %29, %28 ], [ 0, %15 ]
  %23 = getelementptr inbounds [501 x i8], [501 x i8]* %3, i64 0, i64 %22
  %24 = load i8, i8* %23, align 1, !tbaa !5
  switch i8 %24, label %50 [
    i8 0, label %25
    i8 65, label %28
    i8 84, label %28
    i8 71, label %28
    i8 67, label %28
  ]

25:                                               ; preds = %21
  %26 = load i8, i8* %5, align 16, !tbaa !5
  %27 = icmp eq i8 %26, 0
  br i1 %27, label %43, label %30

28:                                               ; preds = %21, %21, %21, %21
  %29 = add nuw i64 %22, 1
  br label %21, !llvm.loop !10

30:                                               ; preds = %25, %30
  %31 = phi i64 [ %39, %30 ], [ 0, %25 ]
  %32 = phi i8 [ %41, %30 ], [ %26, %25 ]
  %33 = phi double [ %38, %30 ], [ 0.000000e+00, %25 ]
  %34 = getelementptr inbounds [501 x i8], [501 x i8]* %3, i64 0, i64 %31
  %35 = load i8, i8* %34, align 1, !tbaa !5
  %36 = icmp eq i8 %32, %35
  %37 = fadd double %33, 1.000000e+00
  %38 = select i1 %36, double %37, double %33
  %39 = add nuw nsw i64 %31, 1
  %40 = getelementptr inbounds [501 x i8], [501 x i8]* %2, i64 0, i64 %39
  %41 = load i8, i8* %40, align 1, !tbaa !5
  %42 = icmp eq i8 %41, 0
  br i1 %42, label %43, label %30, !llvm.loop !11

43:                                               ; preds = %30, %25
  %44 = phi double [ 0.000000e+00, %25 ], [ %38, %30 ]
  %45 = sitofp i32 %11 to double
  %46 = fdiv double %44, %45
  %47 = load double, double* %1, align 8, !tbaa !12
  %48 = fcmp ult double %46, %47
  %49 = select i1 %48, i8* getelementptr inbounds ([3 x i8], [3 x i8]* @.str.4, i64 0, i64 0), i8* getelementptr inbounds ([4 x i8], [4 x i8]* @.str.3, i64 0, i64 0)
  br label %50

50:                                               ; preds = %15, %21, %43, %0
  %51 = phi i8* [ getelementptr inbounds ([6 x i8], [6 x i8]* @.str.2, i64 0, i64 0), %0 ], [ %49, %43 ], [ getelementptr inbounds ([6 x i8], [6 x i8]* @.str.2, i64 0, i64 0), %21 ], [ getelementptr inbounds ([6 x i8], [6 x i8]* @.str.2, i64 0, i64 0), %15 ]
  %52 = call i32 (i8*, ...) @printf(i8* nonnull dereferenceable(1) %51)
  call void @llvm.lifetime.end.p0i8(i64 501, i8* nonnull %6) #4
  call void @llvm.lifetime.end.p0i8(i64 501, i8* nonnull %5) #4
  call void @llvm.lifetime.end.p0i8(i64 8, i8* nonnull %4) #4
  ret i32 0
}

; Function Attrs: argmemonly mustprogress nofree nosync nounwind willreturn
declare void @llvm.lifetime.start.p0i8(i64 immarg, i8* nocapture) #1

; Function Attrs: nofree nounwind
declare noundef i32 @__isoc99_scanf(i8* nocapture noundef readonly, ...) local_unnamed_addr #2

; Function Attrs: argmemonly mustprogress nofree nounwind readonly willreturn
declare i64 @strlen(i8* nocapture) local_unnamed_addr #3

; Function Attrs: nofree nounwind
declare noundef i32 @printf(i8* nocapture noundef readonly, ...) local_unnamed_addr #2

; Function Attrs: argmemonly mustprogress nofree nosync nounwind willreturn
declare void @llvm.lifetime.end.p0i8(i64 immarg, i8* nocapture) #1


!llvm.module.flags = !{!0, !1, !2, !3}
!llvm.ident = !{!4}

!0 = !{i32 1, !"wchar_size", i32 4}
!1 = !{i32 7, !"PIC Level", i32 2}
!2 = !{i32 7, !"PIE Level", i32 2}
!3 = !{i32 7, !"uwtable", i32 1}
!4 = !{!"clang version 13.0.0"}
!5 = !{!6, !6, i64 0}
!6 = !{!"omnipotent char", !7, i64 0}
!7 = !{!"Simple C/C++ TBAA"}
!8 = distinct !{!8, !9}
!9 = !{!"llvm.loop.mustprogress"}
!10 = distinct !{!10, !9}
!11 = distinct !{!11, !9}
!12 = !{!13, !13, i64 0}
!13 = !{!"double", !6, i64 0}
